	.file	"chain.c"
	.text
.Ltext0:
	.type	dynamic_lookup, @function
dynamic_lookup:
.LFB17:
	.file 1 "/usr/local/src/liballocs/contrib/libsystrap/contrib/librunt/include/relf.h"
	.loc 1 462 1
	.cfi_startproc
	pushq	%rbp
	.cfi_def_cfa_offset 16
	.cfi_offset 6, -16
	movq	%rsp, %rbp
	.cfi_def_cfa_register 6
	movq	%rdi, -24(%rbp)
	movl	%esi, -28(%rbp)
.LBB2:
	.loc 1 463 17
	movq	-24(%rbp), %rax
	movq	%rax, -8(%rbp)
	.loc 1 463 2
	jmp	.L2
.L5:
	.loc 1 465 10
	movq	-8(%rbp), %rax
	movq	(%rax), %rdx
	.loc 1 465 18
	movl	-28(%rbp), %eax
	cltq
	.loc 1 465 6
	cmpq	%rax, %rdx
	jne	.L3
	.loc 1 467 11
	movq	-8(%rbp), %rax
	jmp	.L4
.L3:
	.loc 1 463 49 discriminator 2
	addq	$16, -8(%rbp)
.L2:
	.loc 1 463 29 discriminator 1
	movq	-8(%rbp), %rax
	movq	(%rax), %rax
	.loc 1 463 2 discriminator 1
	testq	%rax, %rax
	jne	.L5
.LBE2:
	.loc 1 470 8
	movl	$0, %eax
.L4:
	.loc 1 471 1
	popq	%rbp
	.cfi_def_cfa 7, 8
	ret
	.cfi_endproc
.LFE17:
	.size	dynamic_lookup, .-dynamic_lookup
	.section	.rodata
	.align 8
.LC0:
	.string	"/usr/local/src/liballocs/contrib/libsystrap/contrib/librunt/include/relf.h"
.LC1:
	.string	"expected dynamic tag"
	.text
	.type	dynamic_xlookup, @function
dynamic_xlookup:
.LFB18:
	.loc 1 475 1
	.cfi_startproc
	pushq	%rbp
	.cfi_def_cfa_offset 16
	.cfi_offset 6, -16
	movq	%rsp, %rbp
	.cfi_def_cfa_register 6
	subq	$32, %rsp
	movq	%rdi, -24(%rbp)
	movl	%esi, -28(%rbp)
	.loc 1 476 20
	movl	-28(%rbp), %edx
	movq	-24(%rbp), %rax
	movl	%edx, %esi
	movq	%rax, %rdi
	call	dynamic_lookup
	movq	%rax, -8(%rbp)
	.loc 1 477 5
	cmpq	$0, -8(%rbp)
	jne	.L7
	.loc 1 477 14 discriminator 1
	leaq	__func__.4434(%rip), %rcx
	movl	$477, %edx
	leaq	.LC0(%rip), %rsi
	leaq	.LC1(%rip), %rdi
	call	__assert_fail@PLT
.L7:
	.loc 1 478 9
	movq	-8(%rbp), %rax
	.loc 1 479 1
	leave
	.cfi_def_cfa 7, 8
	ret
	.cfi_endproc
.LFE18:
	.size	dynamic_xlookup, .-dynamic_xlookup
	.type	elf64_hash, @function
elf64_hash:
.LFB20:
	.loc 1 490 1
	.cfi_startproc
	pushq	%rbp
	.cfi_def_cfa_offset 16
	.cfi_offset 6, -16
	movq	%rsp, %rbp
	.cfi_def_cfa_register 6
	movq	%rdi, -24(%rbp)
	.loc 1 491 11
	movq	$0, -8(%rbp)
	.loc 1 492 8
	jmp	.L10
.L12:
	.loc 1 494 10
	movq	-8(%rbp), %rax
	salq	$4, %rax
	movq	%rax, %rcx
	.loc 1 494 23
	movq	-24(%rbp), %rax
	leaq	1(%rax), %rdx
	movq	%rdx, -24(%rbp)
	.loc 1 494 18
	movzbl	(%rax), %eax
	movzbl	%al, %eax
	.loc 1 494 5
	addq	%rcx, %rax
	movq	%rax, -8(%rbp)
	.loc 1 495 15
	movq	-8(%rbp), %rax
	andl	$4026531840, %eax
	movq	%rax, -16(%rbp)
	.loc 1 495 6
	cmpq	$0, -16(%rbp)
	je	.L11
	.loc 1 495 43 discriminator 1
	movq	-16(%rbp), %rax
	shrq	$24, %rax
	.loc 1 495 38 discriminator 1
	xorq	%rax, -8(%rbp)
.L11:
	.loc 1 496 5
	andq	$268435455, -8(%rbp)
.L10:
	.loc 1 492 9
	movq	-24(%rbp), %rax
	movzbl	(%rax), %eax
	.loc 1 492 8
	testb	%al, %al
	jne	.L12
	.loc 1 498 9
	movq	-8(%rbp), %rax
	.loc 1 499 1
	popq	%rbp
	.cfi_def_cfa 7, 8
	ret
	.cfi_endproc
.LFE20:
	.size	elf64_hash, .-elf64_hash
	.type	get_dynsym_from_dyn, @function
get_dynsym_from_dyn:
.LFB31:
	.loc 1 691 1
	.cfi_startproc
	pushq	%rbp
	.cfi_def_cfa_offset 16
	.cfi_offset 6, -16
	movq	%rsp, %rbp
	.cfi_def_cfa_register 6
	subq	$32, %rsp
	movq	%rdi, -24(%rbp)
	movq	%rsi, -32(%rbp)
	.loc 1 692 16
	movq	-24(%rbp), %rax
	movl	$6, %esi
	movq	%rax, %rdi
	call	dynamic_xlookup
	.loc 1 692 12
	movq	8(%rax), %rax
	movq	%rax, -8(%rbp)
	.loc 1 693 224
	cmpq	$0, -8(%rbp)
	je	.L15
	.loc 1 693 13 discriminator 1
	movq	-8(%rbp), %rax
	cmpq	-32(%rbp), %rax
	jb	.L16
	.loc 1 693 121 discriminator 4
	movl	$4294967295, %edx
	movq	-32(%rbp), %rax
	addq	%rdx, %rax
	.loc 1 693 75 discriminator 4
	cmpq	%rax, -8(%rbp)
	jb	.L17
.L16:
	.loc 1 693 202 discriminator 5
	movq	-32(%rbp), %rdx
	movq	-8(%rbp), %rax
	addq	%rdx, %rax
	.loc 1 693 224 discriminator 5
	jmp	.L20
.L17:
	.loc 1 693 13 discriminator 6
	movq	-8(%rbp), %rax
	.loc 1 693 224 discriminator 6
	jmp	.L20
.L15:
	.loc 1 693 224 is_stmt 0 discriminator 2
	movl	$0, %eax
.L20:
	.loc 1 694 1 is_stmt 1 discriminator 11
	leave
	.cfi_def_cfa 7, 8
	ret
	.cfi_endproc
.LFE31:
	.size	get_dynsym_from_dyn, .-get_dynsym_from_dyn
	.type	get_gnu_hash_from_dyn, @function
get_gnu_hash_from_dyn:
.LFB33:
	.loc 1 702 1
	.cfi_startproc
	pushq	%rbp
	.cfi_def_cfa_offset 16
	.cfi_offset 6, -16
	movq	%rsp, %rbp
	.cfi_def_cfa_register 6
	subq	$32, %rsp
	movq	%rdi, -24(%rbp)
	movq	%rsi, -32(%rbp)
	.loc 1 703 27
	movq	-24(%rbp), %rax
	movl	$1879047925, %esi
	movq	%rax, %rdi
	call	dynamic_lookup
	movq	%rax, -8(%rbp)
	.loc 1 704 344
	cmpq	$0, -8(%rbp)
	je	.L22
	.loc 1 704 89 discriminator 1
	movq	-8(%rbp), %rax
	movq	8(%rax), %rax
	.loc 1 704 39 discriminator 1
	cmpq	%rax, -32(%rbp)
	ja	.L23
	.loc 1 704 160 discriminator 3
	movq	-8(%rbp), %rax
	movq	8(%rax), %rax
	.loc 1 704 195 discriminator 3
	movl	$4294967295, %ecx
	movq	-32(%rbp), %rdx
	addq	%rcx, %rdx
	.loc 1 704 126 discriminator 3
	cmpq	%rdx, %rax
	jnb	.L23
	.loc 1 704 263 discriminator 5
	movq	-8(%rbp), %rax
	movq	8(%rax), %rax
	.loc 1 704 39 discriminator 5
	jmp	.L25
.L23:
	.loc 1 704 331 discriminator 6
	movq	-8(%rbp), %rax
	movq	8(%rax), %rdx
	.loc 1 704 299 discriminator 6
	movq	-32(%rbp), %rax
	addq	%rdx, %rax
	jmp	.L25
.L22:
	.loc 1 704 344 discriminator 2
	movl	$0, %eax
.L25:
	.loc 1 704 13 discriminator 10
	movq	%rax, -16(%rbp)
	.loc 1 705 9 discriminator 10
	movq	-16(%rbp), %rax
	.loc 1 706 1 discriminator 10
	leave
	.cfi_def_cfa 7, 8
	ret
	.cfi_endproc
.LFE33:
	.size	get_gnu_hash_from_dyn, .-get_gnu_hash_from_dyn
	.type	get_sysv_hash_from_dyn, @function
get_sysv_hash_from_dyn:
.LFB35:
	.loc 1 714 1
	.cfi_startproc
	pushq	%rbp
	.cfi_def_cfa_offset 16
	.cfi_offset 6, -16
	movq	%rsp, %rbp
	.cfi_def_cfa_register 6
	subq	$32, %rsp
	movq	%rdi, -24(%rbp)
	movq	%rsi, -32(%rbp)
	.loc 1 715 23
	movq	-24(%rbp), %rax
	movl	$4, %esi
	movq	%rax, %rdi
	call	dynamic_lookup
	movq	%rax, -8(%rbp)
	.loc 1 716 320
	cmpq	$0, -8(%rbp)
	je	.L28
	.loc 1 716 77 discriminator 1
	movq	-8(%rbp), %rax
	movq	8(%rax), %rax
	.loc 1 716 31 discriminator 1
	cmpq	%rax, -32(%rbp)
	ja	.L29
	.loc 1 716 144 discriminator 3
	movq	-8(%rbp), %rax
	movq	8(%rax), %rax
	.loc 1 716 179 discriminator 3
	movl	$4294967295, %ecx
	movq	-32(%rbp), %rdx
	addq	%rcx, %rdx
	.loc 1 716 114 discriminator 3
	cmpq	%rdx, %rax
	jnb	.L29
	.loc 1 716 243 discriminator 5
	movq	-8(%rbp), %rax
	movq	8(%rax), %rax
	.loc 1 716 31 discriminator 5
	jmp	.L31
.L29:
	.loc 1 716 307 discriminator 6
	movq	-8(%rbp), %rax
	movq	8(%rax), %rdx
	.loc 1 716 279 discriminator 6
	movq	-32(%rbp), %rax
	addq	%rdx, %rax
	jmp	.L31
.L28:
	.loc 1 716 320 discriminator 2
	movl	$0, %eax
.L31:
	.loc 1 716 13 discriminator 10
	movq	%rax, -16(%rbp)
	.loc 1 717 9 discriminator 10
	movq	-16(%rbp), %rax
	.loc 1 718 1 discriminator 10
	leave
	.cfi_def_cfa 7, 8
	ret
	.cfi_endproc
.LFE35:
	.size	get_sysv_hash_from_dyn, .-get_sysv_hash_from_dyn
	.type	get_dynstr_from_dyn, @function
get_dynstr_from_dyn:
.LFB37:
	.loc 1 726 1
	.cfi_startproc
	pushq	%rbp
	.cfi_def_cfa_offset 16
	.cfi_offset 6, -16
	movq	%rsp, %rbp
	.cfi_def_cfa_register 6
	subq	$32, %rsp
	movq	%rdi, -24(%rbp)
	movq	%rsi, -32(%rbp)
	.loc 1 727 61
	movq	-24(%rbp), %rax
	movl	$5, %esi
	movq	%rax, %rdi
	call	dynamic_xlookup
	.loc 1 727 50
	movq	8(%rax), %rax
	.loc 1 727 26
	cmpq	%rax, -32(%rbp)
	ja	.L34
	.loc 1 727 103 discriminator 1
	movq	-24(%rbp), %rax
	movl	$5, %esi
	movq	%rax, %rdi
	call	dynamic_xlookup
	.loc 1 727 50 discriminator 1
	movq	8(%rax), %rax
	.loc 1 727 85 discriminator 1
	movl	$4294967295, %ecx
	movq	-32(%rbp), %rdx
	addq	%rcx, %rdx
	.loc 1 727 87 discriminator 1
	cmpq	%rdx, %rax
	jnb	.L34
	.loc 1 727 135 discriminator 3
	movq	-24(%rbp), %rax
	movl	$5, %esi
	movq	%rax, %rdi
	call	dynamic_xlookup
	.loc 1 727 50 discriminator 3
	movq	8(%rax), %rax
	.loc 1 727 26 discriminator 3
	jmp	.L35
.L34:
	.loc 1 727 100 discriminator 4
	movq	-24(%rbp), %rax
	movl	$5, %esi
	movq	%rax, %rdi
	call	dynamic_xlookup
	.loc 1 727 50 discriminator 4
	movq	8(%rax), %rdx
	.loc 1 727 86 discriminator 4
	movq	-32(%rbp), %rax
	addq	%rdx, %rax
.L35:
	.loc 1 727 17 discriminator 6
	movq	%rax, -8(%rbp)
	.loc 1 728 9 discriminator 6
	movq	-8(%rbp), %rax
	.loc 1 729 1 discriminator 6
	leave
	.cfi_def_cfa 7, 8
	ret
	.cfi_endproc
.LFE37:
	.size	get_dynstr_from_dyn, .-get_dynstr_from_dyn
	.section	.rodata
	.align 8
.LC2:
	.string	"(unsigned char *) dynstr > (unsigned char *) dynsym"
	.text
	.type	dynamic_symbol_count_fast, @function
dynamic_symbol_count_fast:
.LFB39:
	.loc 1 738 1
	.cfi_startproc
	pushq	%rbp
	.cfi_def_cfa_offset 16
	.cfi_offset 6, -16
	movq	%rsp, %rbp
	.cfi_def_cfa_register 6
	subq	$32, %rsp
	movq	%rdi, -8(%rbp)
	movq	%rsi, -16(%rbp)
	movq	%rdx, -24(%rbp)
	.loc 1 739 5
	cmpq	$0, -24(%rbp)
	je	.L38
	.loc 1 739 33 discriminator 1
	movq	-24(%rbp), %rax
	addq	$4, %rax
	movl	(%rax), %eax
	movl	%eax, %eax
	jmp	.L39
.L38:
	.loc 1 740 5
	cmpq	$0, -8(%rbp)
	je	.L40
	.loc 1 740 14 discriminator 2
	cmpq	$0, -16(%rbp)
	jne	.L41
.L40:
	.loc 1 740 33 discriminator 3
	movl	$0, %eax
	jmp	.L39
.L41:
	.loc 1 743 33
	movq	-16(%rbp), %rax
	cmpq	-8(%rbp), %rax
	ja	.L42
	.loc 1 743 10 discriminator 1
	leaq	__PRETTY_FUNCTION__.4547(%rip), %rcx
	movl	$743, %edx
	leaq	.LC0(%rip), %rsi
	leaq	.LC2(%rip), %rdi
	call	__assert_fail@PLT
.L42:
	.loc 1 745 35
	movq	-16(%rbp), %rax
	subq	-8(%rbp), %rax
	.loc 1 745 63
	movabsq	$-6148914691236517205, %rdx
	mulq	%rdx
	movq	%rdx, %rax
	shrq	$4, %rax
.L39:
	.loc 1 746 1
	leave
	.cfi_def_cfa 7, 8
	ret
	.cfi_endproc
.LFE39:
	.size	dynamic_symbol_count_fast, .-dynamic_symbol_count_fast
	.type	dynamic_symbol_count_from_dyn, @function
dynamic_symbol_count_from_dyn:
.LFB40:
	.loc 1 749 1
	.cfi_startproc
	pushq	%rbp
	.cfi_def_cfa_offset 16
	.cfi_offset 6, -16
	movq	%rsp, %rbp
	.cfi_def_cfa_register 6
	subq	$48, %rsp
	movq	%rdi, -40(%rbp)
	movq	%rsi, -48(%rbp)
	.loc 1 750 20
	movq	-48(%rbp), %rdx
	movq	-40(%rbp), %rax
	movq	%rdx, %rsi
	movq	%rax, %rdi
	call	get_sysv_hash_from_dyn
	movq	%rax, -8(%rbp)
	.loc 1 751 5
	cmpq	$0, -8(%rbp)
	je	.L44
	.loc 1 751 19 discriminator 1
	movq	-8(%rbp), %rax
	movq	%rax, %rdx
	movl	$0, %esi
	movl	$0, %edi
	call	dynamic_symbol_count_fast
	jmp	.L45
.L44:
	.loc 1 752 21
	movq	-48(%rbp), %rdx
	movq	-40(%rbp), %rax
	movq	%rdx, %rsi
	movq	%rax, %rdi
	call	get_dynsym_from_dyn
	movq	%rax, -16(%rbp)
	.loc 1 753 26
	movq	-48(%rbp), %rdx
	movq	-40(%rbp), %rax
	movq	%rdx, %rsi
	movq	%rax, %rdi
	call	get_dynstr_from_dyn
	movq	%rax, -24(%rbp)
	.loc 1 754 9
	movq	-8(%rbp), %rdx
	movq	-24(%rbp), %rcx
	movq	-16(%rbp), %rax
	movq	%rcx, %rsi
	movq	%rax, %rdi
	call	dynamic_symbol_count_fast
.L45:
	.loc 1 755 1
	leave
	.cfi_def_cfa 7, 8
	ret
	.cfi_endproc
.LFE40:
	.size	dynamic_symbol_count_from_dyn, .-dynamic_symbol_count_from_dyn
	.type	hash_lookup, @function
hash_lookup:
.LFB42:
	.loc 1 764 1
	.cfi_startproc
	pushq	%rbp
	.cfi_def_cfa_offset 16
	.cfi_offset 6, -16
	movq	%rsp, %rbp
	.cfi_def_cfa_register 6
	subq	$96, %rsp
	movq	%rdi, -72(%rbp)
	movq	%rsi, -80(%rbp)
	movq	%rdx, -88(%rbp)
	movq	%rcx, -96(%rbp)
	.loc 1 765 12
	movq	$0, -8(%rbp)
	.loc 1 766 12
	movq	-72(%rbp), %rax
	movl	(%rax), %eax
	movl	%eax, -16(%rbp)
	.loc 1 767 12
	movq	-72(%rbp), %rax
	movl	4(%rax), %eax
	movl	%eax, -20(%rbp)
	.loc 1 769 14
	movq	-72(%rbp), %rax
	addq	$8, %rax
	movq	%rax, -32(%rbp)
	.loc 1 770 62
	movl	-16(%rbp), %eax
	addl	$2, %eax
	movl	%eax, %eax
	.loc 1 770 59
	leaq	0(,%rax,4), %rdx
	.loc 1 770 14
	movq	-72(%rbp), %rax
	addq	%rdx, %rax
	movq	%rax, -40(%rbp)
	.loc 1 772 20
	movq	-96(%rbp), %rax
	movq	%rax, %rdi
	call	elf64_hash
	movq	%rax, -48(%rbp)
	.loc 1 773 40
	movl	-16(%rbp), %ecx
	movq	-48(%rbp), %rax
	movl	$0, %edx
	divq	%rcx
	.loc 1 773 12
	movq	-32(%rbp), %rax
	movl	(%rax,%rdx,4), %eax
	movl	%eax, -52(%rbp)
	.loc 1 774 12
	movl	-52(%rbp), %eax
	movl	%eax, -12(%rbp)
	.loc 1 775 2
	jmp	.L47
.L50:
.LBB3:
	.loc 1 777 28
	movl	-12(%rbp), %edx
	movq	%rdx, %rax
	addq	%rax, %rax
	addq	%rdx, %rax
	salq	$3, %rax
	movq	%rax, %rdx
	.loc 1 777 13
	movq	-80(%rbp), %rax
	addq	%rdx, %rax
	movq	%rax, -64(%rbp)
	.loc 1 778 47
	movq	-64(%rbp), %rax
	movl	(%rax), %eax
	movl	%eax, %edx
	.loc 1 778 34
	movq	-88(%rbp), %rax
	addq	%rax, %rdx
	.loc 1 778 12
	movq	-96(%rbp), %rax
	movq	%rax, %rsi
	movq	%rdx, %rdi
	call	strcmp@PLT
	.loc 1 778 6
	testl	%eax, %eax
	jne	.L48
	.loc 1 781 14
	movq	-64(%rbp), %rax
	movq	%rax, -8(%rbp)
	.loc 1 782 4
	jmp	.L49
.L48:
.LBE3:
	.loc 1 775 36
	movq	-40(%rbp), %rax
	movl	-12(%rbp), %edx
	movl	(%rax,%rdx,4), %eax
	movl	%eax, -12(%rbp)
.L47:
	.loc 1 775 2 discriminator 1
	cmpl	$0, -12(%rbp)
	jne	.L50
.L49:
	.loc 1 786 9
	movq	-8(%rbp), %rax
	.loc 1 787 1
	leave
	.cfi_def_cfa 7, 8
	ret
	.cfi_endproc
.LFE42:
	.size	hash_lookup, .-hash_lookup
	.type	dl_new_hash, @function
dl_new_hash:
.LFB44:
	.loc 1 813 1
	.cfi_startproc
	pushq	%rbp
	.cfi_def_cfa_offset 16
	.cfi_offset 6, -16
	movq	%rsp, %rbp
	.cfi_def_cfa_register 6
	movq	%rdi, -24(%rbp)
	.loc 1 814 16
	movq	$5381, -8(%rbp)
.LBB4:
	.loc 1 815 25
	movq	-24(%rbp), %rax
	movzbl	(%rax), %eax
	.loc 1 815 21
	movb	%al, -9(%rbp)
	.loc 1 815 2
	jmp	.L53
.L54:
	.loc 1 817 9 discriminator 3
	movq	-8(%rbp), %rdx
	movq	%rdx, %rax
	salq	$5, %rax
	addq	%rax, %rdx
	.loc 1 817 14 discriminator 3
	movzbl	-9(%rbp), %eax
	.loc 1 817 5 discriminator 3
	addq	%rdx, %rax
	movq	%rax, -8(%rbp)
	.loc 1 815 42 discriminator 3
	addq	$1, -24(%rbp)
	.loc 1 815 44 discriminator 3
	movq	-24(%rbp), %rax
	movzbl	(%rax), %eax
	.loc 1 815 42 discriminator 3
	movb	%al, -9(%rbp)
.L53:
	.loc 1 815 2 discriminator 1
	cmpb	$0, -9(%rbp)
	jne	.L54
.LBE4:
	.loc 1 819 11
	movq	-8(%rbp), %rax
	movl	%eax, %eax
	.loc 1 820 1
	popq	%rbp
	.cfi_def_cfa 7, 8
	ret
	.cfi_endproc
.LFE44:
	.size	dl_new_hash, .-dl_new_hash
	.type	gnu_hash_lookup, @function
gnu_hash_lookup:
.LFB45:
	.loc 1 824 1
	.cfi_startproc
	pushq	%rbp
	.cfi_def_cfa_offset 16
	.cfi_offset 6, -16
	movq	%rsp, %rbp
	.cfi_def_cfa_register 6
	addq	$-128, %rsp
	movq	%rdi, -104(%rbp)
	movq	%rsi, -112(%rbp)
	movq	%rdx, -120(%rbp)
	movq	%rcx, -128(%rbp)
	.loc 1 825 12
	movq	$0, -8(%rbp)
	.loc 1 826 21
	movq	-128(%rbp), %rax
	movq	%rax, %rdi
	call	dl_new_hash
	.loc 1 826 11
	movl	%eax, -16(%rbp)
	.loc 1 828 12
	movq	-104(%rbp), %rax
	movq	%rax, -24(%rbp)
	.loc 1 829 11
	movq	-24(%rbp), %rax
	movl	(%rax), %eax
	movl	%eax, -28(%rbp)
	.loc 1 830 11
	movq	-24(%rbp), %rax
	movl	4(%rax), %eax
	movl	%eax, -32(%rbp)
	.loc 1 831 11
	movq	-24(%rbp), %rax
	movl	8(%rax), %eax
	movl	%eax, -36(%rbp)
	.loc 1 832 11
	movq	-24(%rbp), %rax
	movl	12(%rax), %eax
	movl	%eax, -40(%rbp)
	.loc 1 834 12
	movq	-24(%rbp), %rax
	addq	$16, %rax
	movq	%rax, -48(%rbp)
	.loc 1 835 41
	movl	-36(%rbp), %eax
	leaq	0(,%rax,8), %rdx
	.loc 1 835 12
	movq	-48(%rbp), %rax
	addq	%rdx, %rax
	movq	%rax, -56(%rbp)
	.loc 1 836 30
	movl	-28(%rbp), %eax
	leaq	0(,%rax,4), %rdx
	.loc 1 836 12
	movq	-56(%rbp), %rax
	addq	%rdx, %rax
	movq	%rax, -64(%rbp)
	.loc 1 880 5
	movl	-16(%rbp), %eax
	shrl	$6, %eax
	movl	%eax, %edx
	.loc 1 880 18
	movl	-36(%rbp), %eax
	subl	$1, %eax
	.loc 1 880 5
	andl	%edx, %eax
	movl	%eax, %eax
	.loc 1 879 10
	leaq	0(,%rax,8), %rdx
	movq	-48(%rbp), %rax
	addq	%rdx, %rax
	.loc 1 878 11
	movq	(%rax), %rax
	movq	%rax, -72(%rbp)
	.loc 1 882 15
	movl	-16(%rbp), %eax
	andl	$63, %eax
	movl	%eax, -76(%rbp)
	.loc 1 883 40
	movl	-40(%rbp), %eax
	movl	-16(%rbp), %edx
	movl	%eax, %ecx
	shrl	%cl, %edx
	movl	%edx, %eax
	.loc 1 883 15
	andl	$63, %eax
	movl	%eax, -80(%rbp)
	.loc 1 885 18
	movl	-76(%rbp), %eax
	movq	-72(%rbp), %rdx
	movl	%eax, %ecx
	shrq	%cl, %rdx
	movq	%rdx, %rax
	.loc 1 885 35
	andl	$1, %eax
	.loc 1 885 5
	testq	%rax, %rax
	je	.L57
	.loc 1 886 19
	movl	-80(%rbp), %eax
	movq	-72(%rbp), %rdx
	movl	%eax, %ecx
	shrq	%cl, %rdx
	movq	%rdx, %rax
	.loc 1 886 36
	andl	$1, %eax
	.loc 1 886 4
	testq	%rax, %rax
	je	.L57
.LBB5:
	.loc 1 910 44
	movl	-16(%rbp), %eax
	movl	$0, %edx
	divl	-28(%rbp)
	movl	%edx, %eax
	movl	%eax, %eax
	.loc 1 910 35
	leaq	0(,%rax,4), %rdx
	movq	-56(%rbp), %rax
	addq	%rdx, %rax
	.loc 1 910 12
	movl	(%rax), %eax
	movl	%eax, -84(%rbp)
.LBB6:
	.loc 1 911 17
	movl	-84(%rbp), %eax
	movl	%eax, -12(%rbp)
	.loc 1 911 3
	jmp	.L58
.L62:
	.loc 1 919 25
	movl	-12(%rbp), %eax
	subl	-32(%rbp), %eax
	movl	%eax, %eax
	.loc 1 919 17
	leaq	0(,%rax,4), %rdx
	movq	-64(%rbp), %rax
	addq	%rdx, %rax
	movl	(%rax), %eax
	.loc 1 919 36
	xorl	-16(%rbp), %eax
	.loc 1 919 47
	shrl	%eax
	.loc 1 919 7
	testl	%eax, %eax
	jne	.L59
	.loc 1 921 50
	movl	-12(%rbp), %edx
	movq	%rdx, %rax
	addq	%rax, %rax
	addq	%rdx, %rax
	salq	$3, %rax
	movq	%rax, %rdx
	movq	-112(%rbp), %rax
	addq	%rdx, %rax
	.loc 1 921 58
	movl	(%rax), %eax
	movl	%eax, %edx
	.loc 1 921 36
	movq	-120(%rbp), %rax
	addq	%rax, %rdx
	.loc 1 921 14
	movq	-128(%rbp), %rax
	movq	%rax, %rsi
	movq	%rdx, %rdi
	call	strcmp@PLT
	.loc 1 921 8
	testl	%eax, %eax
	jne	.L59
	.loc 1 923 25
	movl	-12(%rbp), %edx
	movq	%rdx, %rax
	addq	%rax, %rax
	addq	%rdx, %rax
	salq	$3, %rax
	movq	%rax, %rdx
	.loc 1 923 16
	movq	-112(%rbp), %rax
	addq	%rdx, %rax
	movq	%rax, -8(%rbp)
	.loc 1 924 6
	jmp	.L57
.L59:
	.loc 1 913 32
	movl	-12(%rbp), %eax
	subl	-32(%rbp), %eax
	movl	%eax, %eax
	.loc 1 913 24
	leaq	0(,%rax,4), %rdx
	movq	-64(%rbp), %rax
	addq	%rdx, %rax
	movl	(%rax), %eax
	.loc 1 913 43
	andl	$1, %eax
	.loc 1 913 62
	testl	%eax, %eax
	jne	.L60
	.loc 1 913 62 is_stmt 0 discriminator 1
	movl	-12(%rbp), %eax
	addl	$1, %eax
	jmp	.L61
.L60:
	.loc 1 913 62 discriminator 2
	movl	$0, %eax
.L61:
	.loc 1 913 12 is_stmt 1 discriminator 4
	movl	%eax, -12(%rbp)
.L58:
	.loc 1 911 3 discriminator 1
	cmpl	$0, -12(%rbp)
	jne	.L62
.L57:
.LBE6:
.LBE5:
	.loc 1 930 9
	movq	-8(%rbp), %rax
	.loc 1 931 1
	leave
	.cfi_def_cfa 7, 8
	ret
	.cfi_endproc
.LFE45:
	.size	gnu_hash_lookup, .-gnu_hash_lookup
	.type	symbol_lookup_linear, @function
symbol_lookup_linear:
.LFB49:
	.loc 1 998 1
	.cfi_startproc
	pushq	%rbp
	.cfi_def_cfa_offset 16
	.cfi_offset 6, -16
	movq	%rsp, %rbp
	.cfi_def_cfa_register 6
	subq	$80, %rsp
	movq	%rdi, -40(%rbp)
	movq	%rsi, -48(%rbp)
	movq	%rdx, -56(%rbp)
	movq	%rcx, -64(%rbp)
	movq	%r8, -72(%rbp)
	.loc 1 999 12
	movq	$0, -8(%rbp)
.LBB7:
	.loc 1 1000 17
	movq	-40(%rbp), %rax
	movq	%rax, -16(%rbp)
	.loc 1 1000 2
	jmp	.L65
.L68:
.LBB8:
	.loc 1 1002 62
	movq	-16(%rbp), %rax
	movl	(%rax), %eax
	movl	%eax, %edx
	.loc 1 1002 49
	movq	-56(%rbp), %rax
	addq	%rax, %rdx
	.loc 1 1002 11
	movq	-64(%rbp), %rax
	subq	%rdx, %rax
	movq	%rax, -24(%rbp)
	.loc 1 1003 6
	cmpq	$0, -24(%rbp)
	jle	.L66
	.loc 1 1004 9 discriminator 1
	movq	-24(%rbp), %rdx
	.loc 1 1004 44 discriminator 1
	movq	-16(%rbp), %rax
	movl	(%rax), %eax
	movl	%eax, %ecx
	.loc 1 1004 31 discriminator 1
	movq	-56(%rbp), %rax
	addq	%rax, %rcx
	.loc 1 1004 9 discriminator 1
	movq	-72(%rbp), %rax
	movq	%rax, %rsi
	movq	%rcx, %rdi
	call	strncmp@PLT
	.loc 1 1003 34 discriminator 1
	testl	%eax, %eax
	jne	.L66
	.loc 1 1007 14
	movq	-16(%rbp), %rax
	movq	%rax, -8(%rbp)
	.loc 1 1008 4
	jmp	.L67
.L66:
.LBE8:
	.loc 1 1000 58 discriminator 2
	addq	$24, -16(%rbp)
.L65:
	.loc 1 1000 2 discriminator 1
	movq	-16(%rbp), %rax
	cmpq	-48(%rbp), %rax
	jbe	.L68
.L67:
.LBE7:
	.loc 1 1012 9
	movq	-8(%rbp), %rax
	.loc 1 1013 1
	leave
	.cfi_def_cfa 7, 8
	ret
	.cfi_endproc
.LFE49:
	.size	symbol_lookup_linear, .-symbol_lookup_linear
	.type	symbol_lookup_in_dyn, @function
symbol_lookup_in_dyn:
.LFB53:
	.loc 1 1048 1
	.cfi_startproc
	pushq	%rbp
	.cfi_def_cfa_offset 16
	.cfi_offset 6, -16
	movq	%rsp, %rbp
	.cfi_def_cfa_register 6
	subq	$96, %rsp
	movq	%rdi, -72(%rbp)
	movq	%rsi, -80(%rbp)
	movq	%rdx, -88(%rbp)
	.loc 1 1049 20
	movq	-80(%rbp), %rdx
	movq	-72(%rbp), %rax
	movq	%rdx, %rsi
	movq	%rax, %rdi
	call	get_sysv_hash_from_dyn
	movq	%rax, -16(%rbp)
	.loc 1 1050 24
	movq	-80(%rbp), %rdx
	movq	-72(%rbp), %rax
	movq	%rdx, %rsi
	movq	%rax, %rdi
	call	get_gnu_hash_from_dyn
	movq	%rax, -24(%rbp)
	.loc 1 1051 21
	movq	-80(%rbp), %rdx
	movq	-72(%rbp), %rax
	movq	%rdx, %rsi
	movq	%rax, %rdi
	call	get_dynsym_from_dyn
	movq	%rax, -32(%rbp)
	.loc 1 1052 5
	cmpq	$0, -32(%rbp)
	jne	.L71
	.loc 1 1052 22 discriminator 1
	movl	$0, %eax
	jmp	.L72
.L71:
	.loc 1 1053 34
	movq	-80(%rbp), %rdx
	movq	-72(%rbp), %rax
	movq	%rdx, %rsi
	movq	%rax, %rdi
	call	dynamic_symbol_count_from_dyn
	movq	%rax, %rdx
	.loc 1 1053 32
	movq	%rdx, %rax
	addq	%rax, %rax
	addq	%rdx, %rax
	salq	$3, %rax
	movq	%rax, %rdx
	.loc 1 1053 12
	movq	-32(%rbp), %rax
	addq	%rdx, %rax
	movq	%rax, -40(%rbp)
	.loc 1 1054 26
	movq	-80(%rbp), %rdx
	movq	-72(%rbp), %rax
	movq	%rdx, %rsi
	movq	%rax, %rdi
	call	get_dynstr_from_dyn
	movq	%rax, -48(%rbp)
	.loc 1 1055 39
	movq	-72(%rbp), %rax
	movl	$10, %esi
	movq	%rax, %rdi
	call	dynamic_xlookup
	.loc 1 1055 72
	movq	8(%rax), %rdx
	.loc 1 1055 17
	movq	-48(%rbp), %rax
	addq	%rdx, %rax
	movq	%rax, -56(%rbp)
	.loc 1 1059 12
	movq	$0, -8(%rbp)
	.loc 1 1060 5
	cmpq	$0, -24(%rbp)
	je	.L73
	.loc 1 1060 24 discriminator 1
	movq	-88(%rbp), %rcx
	movq	-48(%rbp), %rdx
	movq	-32(%rbp), %rsi
	movq	-24(%rbp), %rax
	movq	%rax, %rdi
	call	gnu_hash_lookup
	movq	%rax, -8(%rbp)
	jmp	.L74
.L73:
	.loc 1 1061 10
	cmpq	$0, -16(%rbp)
	je	.L75
	.loc 1 1061 25 discriminator 1
	movq	-88(%rbp), %rcx
	movq	-48(%rbp), %rdx
	movq	-32(%rbp), %rsi
	movq	-16(%rbp), %rax
	movq	%rax, %rdi
	call	hash_lookup
	movq	%rax, -8(%rbp)
	jmp	.L74
.L75:
	.loc 1 1062 15
	movq	-88(%rbp), %rdi
	movq	-56(%rbp), %rcx
	movq	-48(%rbp), %rdx
	movq	-40(%rbp), %rsi
	movq	-32(%rbp), %rax
	movq	%rdi, %r8
	movq	%rax, %rdi
	call	symbol_lookup_linear
	movq	%rax, -8(%rbp)
.L74:
	.loc 1 1063 9
	movq	-8(%rbp), %rax
.L72:
	.loc 1 1064 1
	leave
	.cfi_def_cfa 7, 8
	ret
	.cfi_endproc
.LFE53:
	.size	symbol_lookup_in_dyn, .-symbol_lookup_in_dyn
	.globl	_dl_debug_state
	.hidden	_dl_debug_state
	.type	_dl_debug_state, @function
_dl_debug_state:
.LFB61:
	.file 2 "chain.c"
	.loc 2 49 28
	.cfi_startproc
	pushq	%rbp
	.cfi_def_cfa_offset 16
	.cfi_offset 6, -16
	movq	%rsp, %rbp
	.cfi_def_cfa_register 6
	.loc 2 49 1
	nop
	popq	%rbp
	.cfi_def_cfa 7, 8
	ret
	.cfi_endproc
.LFE61:
	.size	_dl_debug_state, .-_dl_debug_state
	.section	.rodata
	.align 8
.LC3:
	.string	"allocsld: could not find the program phdrs\n"
	.align 8
.LC4:
	.string	"allocsld: could not infer program base address (no PT_PHDR?)\n"
	.align 8
.LC5:
	.string	"allocsld: PT_INTERP is not writable, so can't transparently chain-load ld.so\nspecial args are required when setting allocsld.so as the dynamic linker\n"
	.align 8
.LC6:
	.string	"allocsld: could not find PT_INTERP header in the target program\n"
	.align 8
.LC7:
	.string	"allocsld: insufficient space for ld.so interp string (size %d)\n"
.LC8:
	.string	"_r_debug"
.LC9:
	.string	"_dl_debug_state"
.LC10:
	.string	"chain.c"
.LC11:
	.string	"fs"
	.text
	.globl	cover_tracks
	.hidden	cover_tracks
	.type	cover_tracks, @function
cover_tracks:
.LFB62:
	.loc 2 53 1
	.cfi_startproc
	pushq	%rbp
	.cfi_def_cfa_offset 16
	.cfi_offset 6, -16
	movq	%rsp, %rbp
	.cfi_def_cfa_register 6
	subq	$160, %rsp
	movl	%edi, %eax
	movq	%rsi, -128(%rbp)
	movl	%edx, -120(%rbp)
	movq	%rcx, -136(%rbp)
	movq	%r8, -144(%rbp)
	movq	%r9, -152(%rbp)
	movb	%al, -116(%rbp)
	.loc 2 107 6
	movzbl	-116(%rbp), %eax
	xorl	$1, %eax
	.loc 2 107 5
	testb	%al, %al
	je	.L93
.LBB9:
	.loc 2 109 9
	movq	$0, -8(%rbp)
	.loc 2 110 10
	movq	$0, -16(%rbp)
	.loc 2 111 6
	cmpq	$0, -128(%rbp)
	jne	.L79
	.loc 2 111 28 discriminator 1
	movq	stderr@GOTPCREL(%rip), %rax
	movq	(%rax), %rax
	movq	%rax, %rcx
	movl	$43, %edx
	movl	$1, %esi
	leaq	.LC3(%rip), %rdi
	call	fwrite@PLT
	.loc 2 111 79 discriminator 1
	movl	$-1, %edi
	call	exit@PLT
.L79:
	.loc 2 114 13
	movq	$0, -24(%rbp)
.LBB10:
	.loc 2 115 12
	movl	$0, -28(%rbp)
	.loc 2 115 3
	jmp	.L80
.L82:
	.loc 2 117 21
	movl	-28(%rbp), %eax
	movslq	%eax, %rdx
	movq	%rdx, %rax
	salq	$3, %rax
	subq	%rdx, %rax
	salq	$3, %rax
	movq	%rax, %rdx
	movq	-128(%rbp), %rax
	addq	%rdx, %rax
	.loc 2 117 24
	movl	(%rax), %eax
	.loc 2 117 7
	cmpl	$6, %eax
	jne	.L81
	.loc 2 119 25
	movq	-128(%rbp), %rcx
	.loc 2 120 21
	movl	-28(%rbp), %eax
	movslq	%eax, %rdx
	movq	%rdx, %rax
	salq	$3, %rax
	subq	%rdx, %rax
	salq	$3, %rax
	movq	%rax, %rdx
	movq	-128(%rbp), %rax
	addq	%rdx, %rax
	.loc 2 120 24
	movq	16(%rax), %rax
	.loc 2 119 23
	subq	%rax, %rcx
	movq	%rcx, %rax
	movq	%rax, -24(%rbp)
.L81:
	.loc 2 115 38 discriminator 2
	addl	$1, -28(%rbp)
.L80:
	.loc 2 115 21 discriminator 1
	movl	-28(%rbp), %eax
	.loc 2 115 3 discriminator 1
	cmpl	%eax, -120(%rbp)
	ja	.L82
.LBE10:
	.loc 2 123 6
	cmpq	$0, -24(%rbp)
	jne	.L83
	.loc 2 123 32 discriminator 1
	movq	stderr@GOTPCREL(%rip), %rax
	movq	(%rax), %rax
	movq	%rax, %rcx
	movl	$61, %edx
	movl	$1, %esi
	leaq	.LC4(%rip), %rdi
	call	fwrite@PLT
	.loc 2 123 101 discriminator 1
	movl	$-1, %edi
	call	exit@PLT
.L83:
.LBB11:
	.loc 2 124 12
	movl	$0, -32(%rbp)
	.loc 2 124 3
	jmp	.L84
.L87:
	.loc 2 126 21
	movl	-32(%rbp), %eax
	movslq	%eax, %rdx
	movq	%rdx, %rax
	salq	$3, %rax
	subq	%rdx, %rax
	salq	$3, %rax
	movq	%rax, %rdx
	movq	-128(%rbp), %rax
	addq	%rdx, %rax
	.loc 2 126 24
	movl	(%rax), %eax
	.loc 2 126 7
	cmpl	$3, %eax
	jne	.L85
	.loc 2 129 9
	movzbl	-116(%rbp), %eax
	xorl	$1, %eax
	.loc 2 129 8
	testb	%al, %al
	je	.L86
	.loc 2 129 47 discriminator 1
	movl	-32(%rbp), %eax
	movslq	%eax, %rdx
	movq	%rdx, %rax
	salq	$3, %rax
	subq	%rdx, %rax
	salq	$3, %rax
	movq	%rax, %rdx
	movq	-128(%rbp), %rax
	addq	%rdx, %rax
	.loc 2 129 50 discriminator 1
	movl	4(%rax), %eax
	.loc 2 129 59 discriminator 1
	andl	$2, %eax
	.loc 2 129 29 discriminator 1
	testl	%eax, %eax
	jne	.L86
	.loc 2 131 11
	movq	stderr@GOTPCREL(%rip), %rax
	movq	(%rax), %rax
	movq	%rax, %rcx
	movl	$150, %edx
	movl	$1, %esi
	leaq	.LC5(%rip), %rdi
	call	fwrite@PLT
	.loc 2 131 173
	movl	$-1, %edi
	call	exit@PLT
.L86:
	.loc 2 134 61
	movl	-32(%rbp), %eax
	movslq	%eax, %rdx
	movq	%rdx, %rax
	salq	$3, %rax
	subq	%rdx, %rax
	salq	$3, %rax
	movq	%rax, %rdx
	movq	-128(%rbp), %rax
	addq	%rdx, %rax
	.loc 2 134 64
	movq	16(%rax), %rdx
	.loc 2 134 46
	movq	-24(%rbp), %rax
	addq	%rdx, %rax
	.loc 2 134 17
	movq	%rax, -8(%rbp)
	.loc 2 135 30
	movl	-32(%rbp), %eax
	movslq	%eax, %rdx
	movq	%rdx, %rax
	salq	$3, %rax
	subq	%rdx, %rax
	salq	$3, %rax
	movq	%rax, %rdx
	movq	-128(%rbp), %rax
	addq	%rdx, %rax
	.loc 2 135 15
	movq	32(%rax), %rax
	movq	%rax, -16(%rbp)
.L85:
	.loc 2 124 38 discriminator 2
	addl	$1, -32(%rbp)
.L84:
	.loc 2 124 21 discriminator 1
	movl	-32(%rbp), %eax
	.loc 2 124 3 discriminator 1
	cmpl	%eax, -120(%rbp)
	ja	.L87
.LBE11:
	.loc 2 138 6
	cmpq	$0, -8(%rbp)
	jne	.L88
	.loc 2 138 26 discriminator 1
	movq	stderr@GOTPCREL(%rip), %rax
	movq	(%rax), %rax
	movq	%rax, %rcx
	movl	$64, %edx
	movl	$1, %esi
	leaq	.LC6(%rip), %rdi
	call	fwrite@PLT
	.loc 2 138 98 discriminator 1
	movl	$-1, %edi
	call	exit@PLT
.L88:
	.loc 2 139 19
	movq	-136(%rbp), %rax
	movq	%rax, %rdi
	call	strlen@PLT
	.loc 2 139 37
	addq	$1, %rax
	.loc 2 139 6
	cmpq	%rax, -16(%rbp)
	jnb	.L89
	.loc 2 141 9
	movq	stderr@GOTPCREL(%rip), %rax
	movq	(%rax), %rax
	movq	-16(%rbp), %rdx
	leaq	.LC7(%rip), %rsi
	movq	%rax, %rdi
	movl	$0, %eax
	call	fprintf@PLT
	.loc 2 141 92
	movl	$-1, %edi
	call	exit@PLT
.L89:
	.loc 2 143 34
	movq	-136(%rbp), %rax
	movq	%rax, %rdi
	call	strlen@PLT
	.loc 2 143 3
	leaq	1(%rax), %rdx
	movq	-136(%rbp), %rcx
	movq	-8(%rbp), %rax
	movq	%rcx, %rsi
	movq	%rax, %rdi
	call	memcpy@PLT
	.loc 2 151 54
	movq	-144(%rbp), %rdx
	movq	-152(%rbp), %rax
	addq	%rdx, %rax
	.loc 2 151 13
	movq	%rax, -40(%rbp)
	.loc 2 152 18
	movq	-152(%rbp), %rcx
	movq	-40(%rbp), %rax
	leaq	.LC8(%rip), %rdx
	movq	%rcx, %rsi
	movq	%rax, %rdi
	call	symbol_lookup_in_dyn
	movq	%rax, -48(%rbp)
	.loc 2 154 45
	movq	-48(%rbp), %rax
	movq	8(%rax), %rdx
	.loc 2 154 41
	movq	-152(%rbp), %rax
	addq	%rdx, %rax
	.loc 2 154 19
	movq	%rax, -56(%rbp)
	.loc 2 155 18
	movq	-152(%rbp), %rcx
	movq	-40(%rbp), %rax
	leaq	.LC9(%rip), %rdx
	movq	%rcx, %rsi
	movq	%rax, %rdi
	call	symbol_lookup_in_dyn
	movq	%rax, -64(%rbp)
	.loc 2 156 34
	cmpq	$0, -64(%rbp)
	jne	.L90
	.loc 2 156 11 discriminator 1
	leaq	__PRETTY_FUNCTION__.4825(%rip), %rcx
	movl	$156, %edx
	leaq	.LC10(%rip), %rsi
	leaq	.LC11(%rip), %rdi
	call	__assert_fail@PLT
.L90:
	.loc 2 170 35
	movq	-64(%rbp), %rax
	movq	8(%rax), %rdx
	.loc 2 170 31
	movq	-152(%rbp), %rax
	addq	%rdx, %rax
	.loc 2 170 9
	movq	%rax, -72(%rbp)
	.loc 2 172 31
	movq	-72(%rbp), %rax
	.loc 2 172 59
	movq	page_size(%rip), %rcx
	movl	$0, %edx
	divq	%rcx
	movq	%rdx, %rax
	.loc 2 172 21
	testq	%rax, %rax
	je	.L91
	.loc 2 172 139 discriminator 1
	movq	-72(%rbp), %rax
	.loc 2 172 166 discriminator 1
	movq	page_size(%rip), %rsi
	movl	$0, %edx
	divq	%rsi
	movq	%rax, %rdx
	.loc 2 172 111 discriminator 1
	movq	page_size(%rip), %rax
	imulq	%rdx, %rax
	jmp	.L92
.L91:
	.loc 2 172 21 discriminator 2
	movq	-72(%rbp), %rax
.L92:
	.loc 2 172 9 discriminator 4
	movq	%rax, -80(%rbp)
	.loc 2 173 13 discriminator 4
	movq	page_size(%rip), %rcx
	movq	-80(%rbp), %rax
	movl	$3, %edx
	movq	%rcx, %rsi
	movq	%rax, %rdi
	call	mprotect@PLT
	movl	%eax, -84(%rbp)
	.loc 2 175 8 discriminator 4
	movb	$72, -96(%rbp)
	movb	$-72, -95(%rbp)
	movb	$-16, -94(%rbp)
	movb	$-34, -93(%rbp)
	movb	$-68, -92(%rbp)
	movb	$-102, -91(%rbp)
	movb	$120, -90(%rbp)
	movb	$86, -89(%rbp)
	movb	$52, -88(%rbp)
	movb	$18, -87(%rbp)
	movb	$-1, -86(%rbp)
	movb	$-32, -85(%rbp)
	.loc 2 177 30 discriminator 4
	leaq	_dl_debug_state(%rip), %rax
	.loc 2 177 13 discriminator 4
	movq	%rax, -104(%rbp)
	.loc 2 178 3 discriminator 4
	leaq	-96(%rbp), %rax
	addq	$2, %rax
	movq	-104(%rbp), %rdx
	movq	%rdx, (%rax)
	.loc 2 179 3 discriminator 4
	movq	-72(%rbp), %rax
	movq	-96(%rbp), %rdx
	movq	%rdx, (%rax)
	movl	-88(%rbp), %edx
	movl	%edx, 8(%rax)
	.loc 2 180 3 discriminator 4
	movq	page_size(%rip), %rcx
	movq	-80(%rbp), %rax
	movl	$5, %edx
	movq	%rcx, %rsi
	movq	%rax, %rdi
	call	mprotect@PLT
.L93:
.LBE9:
	.loc 2 185 1
	nop
	leave
	.cfi_def_cfa 7, 8
	ret
	.cfi_endproc
.LFE62:
	.size	cover_tracks, .-cover_tracks
	.section	.rodata
	.align 8
	.type	__PRETTY_FUNCTION__.4825, @object
	.size	__PRETTY_FUNCTION__.4825, 13
__PRETTY_FUNCTION__.4825:
	.string	"cover_tracks"
	.align 16
	.type	__PRETTY_FUNCTION__.4547, @object
	.size	__PRETTY_FUNCTION__.4547, 26
__PRETTY_FUNCTION__.4547:
	.string	"dynamic_symbol_count_fast"
	.align 16
	.type	__func__.4434, @object
	.size	__func__.4434, 16
__func__.4434:
	.string	"dynamic_xlookup"
	.text
.Letext0:
	.file 3 "/usr/lib/gcc/x86_64-linux-gnu/8/include/stddef.h"
	.file 4 "/usr/include/x86_64-linux-gnu/bits/types.h"
	.file 5 "/usr/include/x86_64-linux-gnu/bits/types/struct_FILE.h"
	.file 6 "/usr/include/x86_64-linux-gnu/bits/types/FILE.h"
	.file 7 "/usr/include/stdio.h"
	.file 8 "/usr/include/x86_64-linux-gnu/bits/sys_errlist.h"
	.file 9 "/usr/include/x86_64-linux-gnu/bits/stdint-intn.h"
	.file 10 "/usr/include/x86_64-linux-gnu/bits/stdint-uintn.h"
	.file 11 "/usr/include/stdint.h"
	.file 12 "/usr/include/elf.h"
	.file 13 "/usr/include/unistd.h"
	.file 14 "/usr/include/x86_64-linux-gnu/bits/getopt_core.h"
	.file 15 "/usr/local/src/liballocs/contrib/donald/src/donald.h"
	.file 16 "/usr/include/link.h"
	.section	.note.GNU-stack,"",@progbits
