	.file	"premain.c"
	.text
.Ltext0:
	.type	auxv_lookup, @function
auxv_lookup:
.LFB7:
	.file 1 "/usr/local/src/liballocs/contrib/libsystrap/contrib/librunt/include/relf.h"
	.loc 1 279 1
	.cfi_startproc
	pushq	%rbp
	.cfi_def_cfa_offset 16
	.cfi_offset 6, -16
	movq	%rsp, %rbp
	.cfi_def_cfa_register 6
	movq	%rdi, -24(%rbp)
	movq	%rsi, -32(%rbp)
.LBB38:
	.loc 1 280 21
	movq	-24(%rbp), %rax
	movq	%rax, -8(%rbp)
	.loc 1 280 2
	jmp	.L2
.L5:
	.loc 1 282 10
	movq	-8(%rbp), %rax
	movq	(%rax), %rax
	.loc 1 282 6
	cmpq	%rax, -32(%rbp)
	jne	.L3
	.loc 1 284 11
	movq	-8(%rbp), %rax
	jmp	.L4
.L3:
	.loc 1 280 53 discriminator 2
	addq	$16, -8(%rbp)
.L2:
	.loc 1 280 33 discriminator 1
	movq	-8(%rbp), %rax
	movq	(%rax), %rax
	.loc 1 280 2 discriminator 1
	testq	%rax, %rax
	jne	.L5
.LBE38:
	.loc 1 287 8
	movl	$0, %eax
.L4:
	.loc 1 288 1
	popq	%rbp
	.cfi_def_cfa 7, 8
	ret
	.cfi_endproc
.LFE7:
	.size	auxv_lookup, .-auxv_lookup
	.hidden	environ
	.comm	environ,8,8
	.hidden	p_dyn
	.comm	p_dyn,8,8
	.hidden	p_auxv
	.comm	p_auxv,8,8
	.hidden	page_size
	.comm	page_size,8,8
	.globl	__wrap___init_tp
	.type	__wrap___init_tp, @function
__wrap___init_tp:
.LFB65:
	.file 2 "/usr/local/src/liballocs/contrib/donald/src/premain.c"
	.loc 2 232 1
	.cfi_startproc
	pushq	%rbp
	.cfi_def_cfa_offset 16
	.cfi_offset 6, -16
	movq	%rsp, %rbp
	.cfi_def_cfa_register 6
	subq	$16, %rsp
	movq	%rdi, -8(%rbp)
	.loc 2 235 2
	movq	-8(%rbp), %rax
	movq	%rax, %rdi
	call	__set_thread_area@PLT
	.loc 2 241 9
	movl	$0, %eax
	.loc 2 242 1
	leave
	.cfi_def_cfa 7, 8
	ret
	.cfi_endproc
.LFE65:
	.size	__wrap___init_tp, .-__wrap___init_tp
	.globl	__get_from_tls_reg_offset
	.hidden	__get_from_tls_reg_offset
	.type	__get_from_tls_reg_offset, @function
__get_from_tls_reg_offset:
.LFB66:
	.loc 2 254 1
	.cfi_startproc
	pushq	%rbp
	.cfi_def_cfa_offset 16
	.cfi_offset 6, -16
	movq	%rsp, %rbp
	.cfi_def_cfa_register 6
	movl	%edi, -20(%rbp)
	.loc 2 257 2
	movl	-20(%rbp), %eax
#APP
# 257 "/usr/local/src/liballocs/contrib/donald/src/premain.c" 1
	movq %fs:(%eax), %rax
# 0 "" 2
#NO_APP
	movq	%rax, -8(%rbp)
	.loc 2 263 9
	movq	-8(%rbp), %rax
	.loc 2 264 1
	popq	%rbp
	.cfi_def_cfa 7, 8
	ret
	.cfi_endproc
.LFE66:
	.size	__get_from_tls_reg_offset, .-__get_from_tls_reg_offset
	.section	.rodata
	.align 8
.LC0:
	.string	"/usr/local/src/liballocs/contrib/donald/src/premain.c"
	.align 8
.LC1:
	.string	"tp_as_read == tp_as_read_from_itself"
	.align 8
.LC2:
	.string	"sysinfo_as_read == sysinfo_ent->a_un.a_val"
	.text
	.type	tls_sanity_check, @function
tls_sanity_check:
.LFB67:
	.loc 2 267 1
	.cfi_startproc
	pushq	%rbp
	.cfi_def_cfa_offset 16
	.cfi_offset 6, -16
	movq	%rsp, %rbp
	.cfi_def_cfa_register 6
	subq	$32, %rsp
	.loc 2 270 25
	movl	$0, %edi
	call	__get_from_tls_reg_offset
	movq	%rax, -8(%rbp)
	.loc 2 271 38
	movq	-8(%rbp), %rax
	.loc 2 271 12
	movq	(%rax), %rax
	movq	%rax, -16(%rbp)
	.loc 2 272 33
	movq	-8(%rbp), %rax
	cmpq	-16(%rbp), %rax
	je	.L11
	.loc 2 272 10 discriminator 1
	leaq	__PRETTY_FUNCTION__.5026(%rip), %rcx
	movl	$272, %edx
	leaq	.LC0(%rip), %rsi
	leaq	.LC1(%rip), %rdi
	call	__assert_fail@PLT
.L11:
	.loc 2 275 30
	movq	p_auxv(%rip), %rax
	movl	$32, %esi
	movq	%rax, %rdi
	call	auxv_lookup
	movq	%rax, -24(%rbp)
	.loc 2 276 5
	cmpq	$0, -24(%rbp)
	je	.L13
.LBB39:
	.loc 2 278 31
	movl	$16, %edi
	call	__get_from_tls_reg_offset
	movq	%rax, -32(%rbp)
	.loc 2 279 38
	movq	-24(%rbp), %rax
	movq	8(%rax), %rax
	.loc 2 279 34
	cmpq	%rax, -32(%rbp)
	je	.L13
	.loc 2 279 11 discriminator 1
	leaq	__PRETTY_FUNCTION__.5026(%rip), %rcx
	movl	$279, %edx
	leaq	.LC0(%rip), %rsi
	leaq	.LC2(%rip), %rdi
	call	__assert_fail@PLT
.L13:
.LBE39:
	.loc 2 281 1
	nop
	leave
	.cfi_def_cfa 7, 8
	ret
	.cfi_endproc
.LFE67:
	.size	tls_sanity_check, .-tls_sanity_check
	.hidden	sp_on_entry
	.comm	sp_on_entry,8,8
	.section	.rodata
.LC3:
	.string	"Hello from allocsld!"
	.text
	.globl	_start
	.type	_start, @function
_start:
.LFB68:
	.loc 2 292 1
	.cfi_startproc
	pushq	%rbp
	.cfi_def_cfa_offset 16
	.cfi_offset 6, -16
	movq	%rsp, %rbp
	.cfi_def_cfa_register 6
	pushq	%rbx
	subq	$360, %rsp
	.cfi_offset 3, -24
	.loc 2 297 2
#APP
# 297 "/usr/local/src/liballocs/contrib/donald/src/premain.c" 1
	movq %rbp, %rax

# 0 "" 2
#NO_APP
	movq	%rax, %rbx
	.loc 2 306 39
	leaq	8(%rbx), %rax
	.loc 2 306 14
	movq	%rax, sp_on_entry(%rip)
	.loc 2 307 2
	movq	sp_on_entry(%rip), %rax
	movq	%rax, -32(%rbp)
	leaq	-356(%rbp), %rax
	movq	%rax, -40(%rbp)
	leaq	-368(%rbp), %rax
	movq	%rax, -48(%rbp)
.LBB40:
.LBB41:
	.loc 2 52 13
	movq	-32(%rbp), %rax
	movq	%rax, -56(%rbp)
	.loc 2 53 13
	movq	-56(%rbp), %rax
	leaq	8(%rax), %rdx
	movq	%rdx, -56(%rbp)
	.loc 2 53 12
	movl	(%rax), %edx
	.loc 2 53 10
	movq	-40(%rbp), %rax
	movl	%edx, (%rax)
	.loc 2 54 37
	movq	-56(%rbp), %rax
	leaq	8(%rax), %rdx
	movq	%rdx, -56(%rbp)
	.loc 2 54 9
	movq	%rax, -64(%rbp)
	.loc 2 55 10
	movq	-48(%rbp), %rax
	movq	-64(%rbp), %rdx
	movq	%rdx, (%rax)
.L15:
	.loc 2 56 11
	movq	-56(%rbp), %rax
	leaq	8(%rax), %rdx
	movq	%rdx, -56(%rbp)
	.loc 2 56 9
	movq	(%rax), %rax
	.loc 2 56 8
	testq	%rax, %rax
	jne	.L15
	.loc 2 57 37
	movq	-56(%rbp), %rax
	leaq	8(%rax), %rdx
	movq	%rdx, -56(%rbp)
	.loc 2 57 9
	movq	%rax, -72(%rbp)
	.loc 2 58 10
	movq	-72(%rbp), %rax
	movq	%rax, environ(%rip)
.L16:
	.loc 2 59 11
	movq	-56(%rbp), %rax
	leaq	8(%rax), %rdx
	movq	%rdx, -56(%rbp)
	.loc 2 59 9
	movq	(%rax), %rax
	.loc 2 59 8
	testq	%rax, %rax
	jne	.L16
	.loc 2 60 9
	movq	-56(%rbp), %rax
	movq	%rax, -80(%rbp)
	.loc 2 61 9
	movq	-80(%rbp), %rax
	movq	%rax, p_auxv(%rip)
	.loc 2 63 16
	movq	p_auxv(%rip), %rax
	movq	%rax, -88(%rbp)
	jmp	.L17
.L19:
	.loc 2 65 4
	addq	$16, -88(%rbp)
.L17:
	.loc 2 64 19
	movq	-88(%rbp), %rax
	movq	(%rax), %rax
	.loc 2 64 8
	testq	%rax, %rax
	je	.L18
	.loc 2 64 51
	movq	-88(%rbp), %rax
	movq	(%rax), %rax
	.loc 2 64 38
	cmpq	$6, %rax
	jne	.L19
.L18:
	.loc 2 66 16
	movq	-88(%rbp), %rax
	movq	(%rax), %rax
	.loc 2 66 5
	cmpq	$6, %rax
	jne	.L20
	.loc 2 66 66
	movq	-88(%rbp), %rax
	movq	8(%rax), %rax
	.loc 2 66 48
	movq	%rax, page_size(%rip)
.L20:
	.loc 2 68 17
	leaq	_begin(%rip), %rax
	movq	%rax, -96(%rbp)
	movq	-96(%rbp), %rax
	movq	%rax, -104(%rbp)
.LBB42:
.LBB43:
	.loc 2 159 46
	movq	-104(%rbp), %rax
	.loc 2 159 22
	movq	_DYNAMIC@GOTPCREL(%rip), %rdx
	.loc 2 160 6
	cmpq	%rdx, %rax
	jbe	.L21
	.loc 2 159 77
	movq	-104(%rbp), %rax
	.loc 2 159 99
	movq	_DYNAMIC@GOTPCREL(%rip), %rdx
	.loc 2 159 97
	addq	%rdx, %rax
	jmp	.L22
.L21:
	.loc 2 160 6
	movq	_DYNAMIC@GOTPCREL(%rip), %rax
.L22:
	.loc 2 159 13
	movq	%rax, -112(%rbp)
	.loc 2 161 13
	movq	$0, -120(%rbp)
	.loc 2 162 16
	movq	$0, -128(%rbp)
	.loc 2 164 8
	movq	$0, -136(%rbp)
	.loc 2 165 16
	movq	$0, -144(%rbp)
	.loc 2 167 14
	movq	$0, -152(%rbp)
	.loc 2 168 16
	movq	$0, -160(%rbp)
	.loc 2 169 16
	movq	$0, -168(%rbp)
	.loc 2 170 16
	movq	$0, -176(%rbp)
	.loc 2 172 13
	movq	$0, -184(%rbp)
	.loc 2 173 16
	movq	$0, -192(%rbp)
	.loc 2 174 16
	movq	$0, -200(%rbp)
	.loc 2 175 16
	movq	$0, -208(%rbp)
	.loc 2 177 16
	movq	$0, -216(%rbp)
	jmp	.L23
.L35:
	.loc 2 180 12
	movq	-112(%rbp), %rax
	movq	(%rax), %rax
	.loc 2 180 6
	cmpq	$6, %rax
	jne	.L24
	.loc 2 180 77
	movq	-112(%rbp), %rax
	movq	8(%rax), %rdx
	.loc 2 180 46
	movq	-104(%rbp), %rax
	addq	%rdx, %rax
	movq	%rax, -120(%rbp)
	jmp	.L25
.L24:
	.loc 2 181 17
	movq	-112(%rbp), %rax
	movq	(%rax), %rax
	.loc 2 181 11
	cmpq	$11, %rax
	jne	.L26
	.loc 2 181 51
	movq	-112(%rbp), %rax
	movq	8(%rax), %rax
	movq	%rax, -128(%rbp)
	jmp	.L25
.L26:
	.loc 2 182 17
	movq	-112(%rbp), %rax
	movq	(%rax), %rax
	.loc 2 182 11
	cmpq	$7, %rax
	jne	.L27
	.loc 2 182 83
	movq	-112(%rbp), %rax
	movq	8(%rax), %rdx
	.loc 2 182 51
	movq	-104(%rbp), %rax
	addq	%rdx, %rax
	movq	%rax, -152(%rbp)
	jmp	.L25
.L27:
	.loc 2 183 17
	movq	-112(%rbp), %rax
	movq	(%rax), %rax
	.loc 2 183 11
	cmpq	$8, %rax
	jne	.L28
	.loc 2 183 50
	movq	-112(%rbp), %rax
	movq	8(%rax), %rax
	movq	%rax, -160(%rbp)
	jmp	.L25
.L28:
	.loc 2 184 17
	movq	-112(%rbp), %rax
	movq	(%rax), %rax
	.loc 2 184 11
	cmpq	$9, %rax
	jne	.L29
	.loc 2 184 54
	movq	-112(%rbp), %rax
	movq	8(%rax), %rax
	movq	%rax, -168(%rbp)
	jmp	.L25
.L29:
	.loc 2 185 17
	movq	-112(%rbp), %rax
	movq	(%rax), %rax
	.loc 2 185 11
	cmpq	$17, %rax
	jne	.L30
	.loc 2 185 81
	movq	-112(%rbp), %rax
	movq	8(%rax), %rdx
	.loc 2 185 49
	movq	-104(%rbp), %rax
	addq	%rdx, %rax
	movq	%rax, -184(%rbp)
	jmp	.L25
.L30:
	.loc 2 186 17
	movq	-112(%rbp), %rax
	movq	(%rax), %rax
	.loc 2 186 11
	cmpq	$18, %rax
	jne	.L31
	.loc 2 186 48
	movq	-112(%rbp), %rax
	movq	8(%rax), %rax
	movq	%rax, -192(%rbp)
	jmp	.L25
.L31:
	.loc 2 187 17
	movq	-112(%rbp), %rax
	movq	(%rax), %rax
	.loc 2 187 11
	cmpq	$19, %rax
	jne	.L32
	.loc 2 187 52
	movq	-112(%rbp), %rax
	movq	8(%rax), %rax
	movq	%rax, -200(%rbp)
	jmp	.L25
.L32:
	.loc 2 188 17
	movq	-112(%rbp), %rax
	movq	(%rax), %rax
	.loc 2 188 11
	cmpq	$23, %rax
	jne	.L33
	.loc 2 188 85
	movq	-112(%rbp), %rax
	movq	8(%rax), %rdx
	.loc 2 188 53
	movq	-104(%rbp), %rax
	addq	%rdx, %rax
	movq	%rax, -136(%rbp)
	jmp	.L25
.L33:
	.loc 2 189 17
	movq	-112(%rbp), %rax
	movq	(%rax), %rax
	.loc 2 189 11
	cmpq	$2, %rax
	jne	.L34
	.loc 2 189 52
	movq	-112(%rbp), %rax
	movq	8(%rax), %rax
	movq	%rax, -144(%rbp)
	jmp	.L25
.L34:
	.loc 2 190 17
	movq	-112(%rbp), %rax
	movq	(%rax), %rax
	.loc 2 190 11
	cmpq	$20, %rax
	jne	.L25
	.loc 2 190 45
	movq	-112(%rbp), %rax
	movq	8(%rax), %rax
	movq	%rax, -216(%rbp)
.L25:
	.loc 2 191 3
	addq	$16, -112(%rbp)
.L23:
	.loc 2 178 14
	movq	-112(%rbp), %rax
	movq	(%rax), %rax
	.loc 2 178 8
	testq	%rax, %rax
	jne	.L35
	.loc 2 193 5
	cmpq	$0, -168(%rbp)
	je	.L36
	.loc 2 193 41
	movq	-160(%rbp), %rax
	movl	$0, %edx
	divq	-168(%rbp)
	movq	%rax, -176(%rbp)
.L36:
	.loc 2 194 5
	cmpq	$0, -200(%rbp)
	je	.L37
	.loc 2 194 39
	movq	-192(%rbp), %rax
	movl	$0, %edx
	divq	-200(%rbp)
	movq	%rax, -208(%rbp)
.L37:
	.loc 2 195 5
	cmpq	$0, -168(%rbp)
	je	.L38
	.loc 2 195 25
	cmpq	$0, -200(%rbp)
	je	.L38
	.loc 2 195 47
	call	abort@PLT
.L38:
	.loc 2 197 5
	cmpq	$0, -168(%rbp)
	je	.L39
	.loc 2 197 33
	movq	$7, -224(%rbp)
	jmp	.L40
.L39:
	.loc 2 197 55
	movq	$17, -224(%rbp)
.L40:
.LBB44:
	.loc 2 207 11
	movl	$0, -228(%rbp)
	jmp	.L41
.L52:
	.loc 2 209 6
	cmpq	$17, -224(%rbp)
	jne	.L42
	.loc 2 210 34
	movl	-228(%rbp), %eax
	cltq
	salq	$4, %rax
	movq	%rax, %rdx
	.loc 2 210 8
	movq	-184(%rbp), %rax
	addq	%rdx, %rax
	movq	%rax, -240(%rbp)
	movq	-104(%rbp), %rax
	movq	%rax, -248(%rbp)
	movq	-120(%rbp), %rax
	movq	%rax, -256(%rbp)
	jmp	.L43
.L42:
	.loc 2 211 35
	movl	-228(%rbp), %eax
	movslq	%eax, %rdx
	movq	%rdx, %rax
	addq	%rax, %rax
	addq	%rdx, %rax
	salq	$3, %rax
	movq	%rax, %rdx
	.loc 2 211 8
	movq	-152(%rbp), %rax
	addq	%rdx, %rax
	movq	%rax, -264(%rbp)
	movq	-104(%rbp), %rax
	movq	%rax, -272(%rbp)
	movq	-120(%rbp), %rax
	movq	%rax, -280(%rbp)
.LBB45:
.LBB46:
	.loc 2 77 58
	movq	-264(%rbp), %rax
	movq	(%rax), %rdx
	.loc 2 77 14
	movq	-272(%rbp), %rax
	addq	%rdx, %rax
	movq	%rax, -288(%rbp)
	.loc 2 78 15
	movq	-264(%rbp), %rax
	movq	8(%rax), %rax
	.loc 2 78 11
	movl	%eax, %eax
	.loc 2 78 2
	cmpq	$7, %rax
	ja	.L44
	cmpq	$6, %rax
	jnb	.L45
	cmpq	$1, %rax
	je	.L46
	jmp	.L43
.L44:
	cmpq	$8, %rax
	jne	.L43
	.loc 2 81 47
	movq	-264(%rbp), %rax
	movq	16(%rax), %rax
	movq	%rax, %rdx
	.loc 2 81 39
	movq	-272(%rbp), %rax
	addq	%rdx, %rax
	.loc 2 81 18
	movq	%rax, %rdx
	.loc 2 81 16
	movq	-288(%rbp), %rax
	movq	%rdx, (%rax)
	jmp	.L43
.L46:
	.loc 2 84 47
	movq	-264(%rbp), %rax
	movq	8(%rax), %rax
	.loc 2 84 42
	shrq	$32, %rax
	movq	%rax, %rdx
	.loc 2 84 50
	movq	%rdx, %rax
	addq	%rax, %rax
	addq	%rdx, %rax
	salq	$3, %rax
	movq	%rax, %rdx
	movq	-280(%rbp), %rax
	addq	%rdx, %rax
	.loc 2 84 41
	movq	8(%rax), %rdx
	.loc 2 84 60
	movq	-264(%rbp), %rax
	movq	16(%rax), %rax
	.loc 2 84 52
	addq	%rax, %rdx
	movq	-272(%rbp), %rax
	addq	%rdx, %rax
	.loc 2 84 18
	movq	%rax, %rdx
	.loc 2 84 16
	movq	-288(%rbp), %rax
	movq	%rdx, (%rax)
	jmp	.L43
.L45:
	.loc 2 89 48
	movq	-264(%rbp), %rax
	movq	8(%rax), %rax
	.loc 2 89 43
	shrq	$32, %rax
	movq	%rax, %rdx
	.loc 2 89 51
	movq	%rdx, %rax
	addq	%rax, %rax
	addq	%rdx, %rax
	salq	$3, %rax
	movq	%rax, %rdx
	movq	-280(%rbp), %rax
	addq	%rdx, %rax
	.loc 2 89 42
	movq	8(%rax), %rax
	.loc 2 89 54
	testq	%rax, %rax
	jne	.L49
	.loc 2 89 57
	movq	-272(%rbp), %rax
	.loc 2 89 54
	negq	%rax
.L49:
	.loc 2 89 39
	movq	-272(%rbp), %rdx
	addq	%rdx, %rax
	.loc 2 89 18
	movq	%rax, %rdx
	.loc 2 89 16
	movq	-288(%rbp), %rax
	movq	%rdx, (%rax)
.L43:
.LBE46:
.LBE45:
	.loc 2 207 76
	addl	$1, -228(%rbp)
.L41:
	.loc 2 207 20
	movl	-228(%rbp), %eax
	movslq	%eax, %rdx
	.loc 2 207 57
	cmpq	$17, -224(%rbp)
	jne	.L50
	movq	-208(%rbp), %rax
	jmp	.L51
.L50:
	movq	-176(%rbp), %rax
.L51:
	.loc 2 207 2
	cmpq	%rax, %rdx
	jb	.L52
.LBE44:
.LBB47:
	.loc 2 215 11
	movl	$0, -292(%rbp)
	jmp	.L53
.L64:
	.loc 2 220 6
	cmpq	$17, -216(%rbp)
	jne	.L54
	.loc 2 221 49
	movl	-292(%rbp), %eax
	cltq
	salq	$4, %rax
	movq	%rax, %rdx
	.loc 2 221 7
	movq	-136(%rbp), %rax
	addq	%rdx, %rax
	movq	%rax, -304(%rbp)
	movq	-104(%rbp), %rax
	movq	%rax, -312(%rbp)
	movq	-120(%rbp), %rax
	movq	%rax, -320(%rbp)
	jmp	.L55
.L54:
	.loc 2 222 52
	movl	-292(%rbp), %eax
	movslq	%eax, %rdx
	movq	%rdx, %rax
	addq	%rax, %rax
	addq	%rdx, %rax
	salq	$3, %rax
	movq	%rax, %rdx
	.loc 2 222 8
	movq	-136(%rbp), %rax
	addq	%rdx, %rax
	movq	%rax, -328(%rbp)
	movq	-104(%rbp), %rax
	movq	%rax, -336(%rbp)
	movq	-120(%rbp), %rax
	movq	%rax, -344(%rbp)
.LBB48:
.LBB49:
	.loc 2 77 58
	movq	-328(%rbp), %rax
	movq	(%rax), %rdx
	.loc 2 77 14
	movq	-336(%rbp), %rax
	addq	%rdx, %rax
	movq	%rax, -352(%rbp)
	.loc 2 78 15
	movq	-328(%rbp), %rax
	movq	8(%rax), %rax
	.loc 2 78 11
	movl	%eax, %eax
	.loc 2 78 2
	cmpq	$7, %rax
	ja	.L56
	cmpq	$6, %rax
	jnb	.L57
	cmpq	$1, %rax
	je	.L58
	jmp	.L55
.L56:
	cmpq	$8, %rax
	jne	.L55
	.loc 2 81 47
	movq	-328(%rbp), %rax
	movq	16(%rax), %rax
	movq	%rax, %rdx
	.loc 2 81 39
	movq	-336(%rbp), %rax
	addq	%rdx, %rax
	.loc 2 81 18
	movq	%rax, %rdx
	.loc 2 81 16
	movq	-352(%rbp), %rax
	movq	%rdx, (%rax)
	jmp	.L55
.L58:
	.loc 2 84 47
	movq	-328(%rbp), %rax
	movq	8(%rax), %rax
	.loc 2 84 42
	shrq	$32, %rax
	movq	%rax, %rdx
	.loc 2 84 50
	movq	%rdx, %rax
	addq	%rax, %rax
	addq	%rdx, %rax
	salq	$3, %rax
	movq	%rax, %rdx
	movq	-344(%rbp), %rax
	addq	%rdx, %rax
	.loc 2 84 41
	movq	8(%rax), %rdx
	.loc 2 84 60
	movq	-328(%rbp), %rax
	movq	16(%rax), %rax
	.loc 2 84 52
	addq	%rax, %rdx
	movq	-336(%rbp), %rax
	addq	%rdx, %rax
	.loc 2 84 18
	movq	%rax, %rdx
	.loc 2 84 16
	movq	-352(%rbp), %rax
	movq	%rdx, (%rax)
	jmp	.L55
.L57:
	.loc 2 89 48
	movq	-328(%rbp), %rax
	movq	8(%rax), %rax
	.loc 2 89 43
	shrq	$32, %rax
	movq	%rax, %rdx
	.loc 2 89 51
	movq	%rdx, %rax
	addq	%rax, %rax
	addq	%rdx, %rax
	salq	$3, %rax
	movq	%rax, %rdx
	movq	-344(%rbp), %rax
	addq	%rdx, %rax
	.loc 2 89 42
	movq	8(%rax), %rax
	.loc 2 89 54
	testq	%rax, %rax
	jne	.L61
	.loc 2 89 57
	movq	-336(%rbp), %rax
	.loc 2 89 54
	negq	%rax
.L61:
	.loc 2 89 39
	movq	-336(%rbp), %rdx
	addq	%rdx, %rax
	.loc 2 89 18
	movq	%rax, %rdx
	.loc 2 89 16
	movq	-352(%rbp), %rax
	movq	%rdx, (%rax)
.L55:
.LBE49:
.LBE48:
	.loc 2 218 4
	addl	$1, -292(%rbp)
.L53:
	.loc 2 216 6
	movl	-292(%rbp), %eax
	movslq	%eax, %rcx
	.loc 2 217 28
	cmpq	$17, -216(%rbp)
	jne	.L62
	movq	-144(%rbp), %rax
	shrq	$4, %rax
	jmp	.L63
.L62:
	movq	-144(%rbp), %rax
	movabsq	$-6148914691236517205, %rdx
	mulq	%rdx
	movq	%rdx, %rax
	shrq	$4, %rax
.L63:
	.loc 2 215 2
	cmpq	%rax, %rcx
	jb	.L64
.LBE47:
.LBE43:
.LBE42:
.LBE41:
.LBE40:
	.loc 2 312 2
	movq	-368(%rbp), %rax
	movq	(%rax), %rdx
	movq	environ(%rip), %rax
	movq	%rdx, %rsi
	movq	%rax, %rdi
	call	__init_libc@PLT
	.loc 2 313 2
	call	tls_sanity_check
	.loc 2 315 2
	leaq	.LC3(%rip), %rdi
	call	puts@PLT
	.loc 2 317 12
	movq	-368(%rbp), %rdx
	movl	-356(%rbp), %eax
	movq	%rdx, %rsi
	movl	%eax, %edi
	call	main
	movl	%eax, -20(%rbp)
	.loc 2 322 2
	movl	-20(%rbp), %eax
	movl	%eax, %esi
	movl	$60, %edi
	movl	$0, %eax
	call	syscall@PLT
	.cfi_endproc
.LFE68:
	.size	_start, .-_start
	.globl	__GI_exit
	.type	__GI_exit, @function
__GI_exit:
.LFB69:
	.loc 2 328 1
	.cfi_startproc
	pushq	%rbp
	.cfi_def_cfa_offset 16
	.cfi_offset 6, -16
	movq	%rsp, %rbp
	.cfi_def_cfa_register 6
	subq	$16, %rsp
	movl	%edi, -4(%rbp)
	.loc 2 331 2
	movl	-4(%rbp), %eax
	movl	%eax, %esi
	movl	$60, %edi
	movl	$0, %eax
	call	syscall@PLT
	.loc 2 332 1
	nop
	leave
	.cfi_def_cfa 7, 8
	ret
	.cfi_endproc
.LFE69:
	.size	__GI_exit, .-__GI_exit
	.section	.rodata
	.align 16
	.type	__PRETTY_FUNCTION__.5026, @object
	.size	__PRETTY_FUNCTION__.5026, 17
__PRETTY_FUNCTION__.5026:
	.string	"tls_sanity_check"
	.weak	_DYNAMIC
	.text
.Letext0:
	.file 3 "/usr/lib/gcc/x86_64-linux-gnu/8/include/stddef.h"
	.file 4 "/usr/include/x86_64-linux-gnu/bits/types.h"
	.file 5 "/usr/include/x86_64-linux-gnu/bits/types/struct_FILE.h"
	.file 6 "/usr/include/x86_64-linux-gnu/bits/types/FILE.h"
	.file 7 "/usr/include/stdio.h"
	.file 8 "/usr/include/x86_64-linux-gnu/bits/sys_errlist.h"
	.file 9 "/usr/include/x86_64-linux-gnu/bits/stdint-intn.h"
	.file 10 "/usr/include/x86_64-linux-gnu/bits/stdint-uintn.h"
	.file 11 "/usr/include/stdint.h"
	.file 12 "/usr/include/elf.h"
	.file 13 "/usr/include/unistd.h"
	.file 14 "/usr/include/x86_64-linux-gnu/bits/getopt_core.h"
	.file 15 "/usr/local/src/liballocs/contrib/donald/src/donald.h"
	.section	.note.GNU-stack,"",@progbits
